target datalayout = "e-m:e-p270:32:32-p271:32:32-p272:64:64-i64:64-i128:128-f80:128-n8:16:32:64-S128"
target triple = "x86_64-pc-linux-gnu"

%struct.CORD_fill_data = type { i64, i64, ptr }

; Function Attrs: nounwind uwtable
define internal i32 @CORD_fill_proc(i8 noundef signext %0, ptr noundef %1) #0 {
  %3 = alloca i8, align 1
  %4 = alloca ptr, align 8
  %5 = alloca ptr, align 8
  %6 = alloca i64, align 8
  store i8 %0, ptr %3, align 1, !tbaa !8
  store ptr %1, ptr %4, align 8, !tbaa !28
  call void @llvm.lifetime.start.p0(i64 8, ptr %5) #9
  %7 = load ptr, ptr %4, align 8, !tbaa !28
  store ptr %7, ptr %5, align 8, !tbaa !28
  call void @llvm.lifetime.start.p0(i64 8, ptr %6) #9
  %8 = load ptr, ptr %5, align 8, !tbaa !28
  %9 = getelementptr inbounds nuw %struct.CORD_fill_data, ptr %8, i32 0, i32 1
  %10 = load i64, ptr %9, align 8, !tbaa !27
  store i64 %10, ptr %6, align 8, !tbaa !11
  %11 = load i8, ptr %3, align 1, !tbaa !8
  %12 = load ptr, ptr %5, align 8, !tbaa !28
  %13 = getelementptr inbounds nuw %struct.CORD_fill_data, ptr %12, i32 0, i32 2
  %14 = load ptr, ptr %13, align 8, !tbaa !26
  %15 = load i64, ptr %6, align 8, !tbaa !11
  %16 = getelementptr inbounds nuw i8, ptr %14, i64 %15
  store i8 %11, ptr %16, align 1, !tbaa !8
  %17 = load i64, ptr %6, align 8, !tbaa !11
  %18 = add i64 %17, 1
  store i64 %18, ptr %6, align 8, !tbaa !11
  %19 = load ptr, ptr %5, align 8, !tbaa !28
  %20 = getelementptr inbounds nuw %struct.CORD_fill_data, ptr %19, i32 0, i32 1
  store i64 %18, ptr %20, align 8, !tbaa !27
  %21 = load i64, ptr %6, align 8, !tbaa !11
  %22 = load ptr, ptr %5, align 8, !tbaa !28
  %23 = getelementptr inbounds nuw %struct.CORD_fill_data, ptr %22, i32 0, i32 0
  %24 = load i64, ptr %23, align 8, !tbaa !24
  %25 = icmp uge i64 %21, %24
  %26 = select i1 %25, i32 1, i32 0
  call void @llvm.lifetime.end.p0(i64 8, ptr %6) #9
  call void @llvm.lifetime.end.p0(i64 8, ptr %5) #9
  ret i32 %26
}