; Function Attrs: mustprogress nofree norecurse nosync nounwind willreturn memory(write, argmem: readwrite, inaccessiblemem: none) uwtable
define internal range(i32 0, 2) i32 @CORD_fill_proc(i8 noundef signext %0, ptr noundef captures(none) %1) #13 {
  %3 = getelementptr inbounds nuw i8, ptr %1, i64 8
  %4 = load i64, ptr %3, align 8, !tbaa !25
  %5 = getelementptr inbounds nuw i8, ptr %1, i64 16
  %6 = load ptr, ptr %5, align 8, !tbaa !24
  %7 = getelementptr inbounds nuw i8, ptr %6, i64 %4
  store i8 %0, ptr %7, align 1, !tbaa !8
  %8 = add i64 %4, 1
  store i64 %8, ptr %3, align 8, !tbaa !25
  %9 = load i64, ptr %1, align 8, !tbaa !22
  %.not = icmp uge i64 %8, %9
  %10 = zext i1 %.not to i32
  ret i32 %10
}